target datalayout = "e-m:e-p270:32:32-p271:32:32-p272:64:64-i64:64-i128:128-f80:128-n8:16:32:64-S128"
target triple = "x86_64-pc-linux-gnu"

%struct.QOSGraphObject = type { ptr, ptr, ptr, ptr, ptr }
%struct.QVirtio9P = type { ptr, ptr }
%struct.QVirtio9PPCI = type { %struct.QVirtioPCIDevice, %struct.QVirtio9P }
%struct.QVirtioPCIDevice = type { %struct.QOSGraphObject, %struct.QVirtioDevice, ptr, %struct.QPCIBar, ptr, i16, i64, i32, i32, i32, i32, i32, i32, i32 }
%struct.QVirtioDevice = type { ptr, i16, i64, i8, i8 }
%struct.QPCIBar = type { i64, i8 }

@.str = private unnamed_addr constant [39 x i8] c"../qemu/tests/qtest/libqos/virtio-9p.c\00", align 1
@.str.20 = private unnamed_addr constant [7 x i8] c"virtio\00", align 1
@.str.21 = private unnamed_addr constant [10 x i8] c"virtio-9p\00", align 1
@.str.24 = private unnamed_addr constant [11 x i8] c"pci-device\00", align 1
@stderr = external global ptr, align 8
@.str.25 = private unnamed_addr constant [36 x i8] c"%s not present in virtio-9p-device\0A\00", align 1
@__func__.virtio_9p_get_driver = private unnamed_addr constant [21 x i8] c"virtio_9p_get_driver\00", align 1

; Function Attrs: nounwind sspstrong uwtable
define internal ptr @virtio_9p_get_driver(ptr noundef %0, ptr noundef %1) #0 {
  %3 = alloca ptr, align 8
  %4 = alloca ptr, align 8
  %5 = alloca ptr, align 8
  store ptr %0, ptr %4, align 8
  store ptr %1, ptr %5, align 8
  %6 = load ptr, ptr %5, align 8
  %7 = call i32 @g_strcmp0(ptr noundef %6, ptr noundef @.str.21)
  %8 = icmp ne i32 %7, 0
  br i1 %8, label %11, label %9

9:                                                ; preds = %2
  %10 = load ptr, ptr %4, align 8
  store ptr %10, ptr %3, align 8
  br label %24

11:                                               ; preds = %2
  %12 = load ptr, ptr %5, align 8
  %13 = call i32 @g_strcmp0(ptr noundef %12, ptr noundef @.str.20)
  %14 = icmp ne i32 %13, 0
  br i1 %14, label %19, label %15

15:                                               ; preds = %11
  %16 = load ptr, ptr %4, align 8
  %17 = getelementptr inbounds nuw %struct.QVirtio9P, ptr %16, i32 0, i32 0
  %18 = load ptr, ptr %17, align 8
  store ptr %18, ptr %3, align 8
  br label %24

19:                                               ; preds = %11
  %20 = load ptr, ptr @stderr, align 8
  %21 = load ptr, ptr %5, align 8
  %22 = call i32 (ptr, i32, ptr, ...) @__fprintf_chk(ptr noundef %20, i32 noundef 1, ptr noundef @.str.25, ptr noundef %21)
  br label %23

23:                                               ; preds = %19
  call void @g_assertion_message_expr(ptr noundef null, ptr noundef @.str, i32 noundef 127, ptr noundef @__func__.virtio_9p_get_driver, ptr noundef null) #15
  unreachable

24:                                               ; preds = %9, %15
  %25 = load ptr, ptr %3, align 8
  ret ptr %25
}

; Function Attrs: nounwind sspstrong uwtable
define internal ptr @virtio_9p_pci_get_driver(ptr noundef %0, ptr noundef %1) #0 {
  %3 = alloca ptr, align 8
  %4 = alloca ptr, align 8
  %5 = alloca ptr, align 8
  %6 = alloca ptr, align 8
  %7 = alloca i32, align 4
  store ptr %0, ptr %4, align 8
  store ptr %1, ptr %5, align 8
  call void @llvm.lifetime.start.p0(i64 8, ptr %6) #14
  %8 = load ptr, ptr %4, align 8
  store ptr %8, ptr %6, align 8
  %9 = load ptr, ptr %5, align 8
  %10 = call i32 @g_strcmp0(ptr noundef %9, ptr noundef @.str.24)
  %11 = icmp ne i32 %10, 0
  br i1 %11, label %17, label %12

12:                                               ; preds = %2
  %13 = load ptr, ptr %6, align 8
  %14 = getelementptr inbounds nuw %struct.QVirtio9PPCI, ptr %13, i32 0, i32 0
  %15 = getelementptr inbounds nuw %struct.QVirtioPCIDevice, ptr %14, i32 0, i32 2
  %16 = load ptr, ptr %15, align 8
  store ptr %16, ptr %3, align 8
  store i32 1, ptr %7, align 4
  br label %22

17:                                               ; preds = %2
  %18 = load ptr, ptr %6, align 8
  %19 = getelementptr inbounds nuw %struct.QVirtio9PPCI, ptr %18, i32 0, i32 1
  %20 = load ptr, ptr %5, align 8
  %21 = call ptr @virtio_9p_get_driver(ptr noundef %19, ptr noundef %20)
  store ptr %21, ptr %3, align 8
  store i32 1, ptr %7, align 4
  br label %22

22:                                               ; preds = %17, %12
  call void @llvm.lifetime.end.p0(i64 8, ptr %6) #14
  %23 = load ptr, ptr %3, align 8
  ret ptr %23
}