; Function Attrs: nounwind sspstrong uwtable
define internal ptr @virtio_9p_pci_get_driver(ptr noundef readonly captures(ret: address, provenance) %0, ptr noundef %1) #0 {
  %3 = tail call i32 @g_strcmp0(ptr noundef %1, ptr noundef nonnull @.str.24) #13
  %.not = icmp eq i32 %3, 0
  br i1 %.not, label %4, label %7

4:                                                ; preds = %2
  %5 = getelementptr inbounds nuw i8, ptr %0, i64 72
  %6 = load ptr, ptr %5, align 8
  br label %virtio_9p_get_driver.exit

7:                                                ; preds = %2
  %8 = getelementptr inbounds nuw i8, ptr %0, i64 152
  %9 = tail call i32 @g_strcmp0(ptr noundef %1, ptr noundef nonnull @.str.21) #13
  %.not.i = icmp eq i32 %9, 0
  br i1 %.not.i, label %virtio_9p_get_driver.exit, label %10

10:                                               ; preds = %7
  %11 = tail call i32 @g_strcmp0(ptr noundef %1, ptr noundef nonnull @.str.20) #13
  %.not6.i = icmp eq i32 %11, 0
  br i1 %.not6.i, label %12, label %14

12:                                               ; preds = %10
  %13 = load ptr, ptr %8, align 8
  br label %virtio_9p_get_driver.exit

14:                                               ; preds = %10
  %15 = load ptr, ptr @stderr, align 8
  %16 = tail call i32 (ptr, i32, ptr, ...) @__fprintf_chk(ptr noundef %15, i32 noundef 1, ptr noundef nonnull @.str.25, ptr noundef %1) #13
  tail call void @g_assertion_message_expr(ptr noundef null, ptr noundef nonnull @.str, i32 noundef 127, ptr noundef nonnull @__func__.virtio_9p_get_driver, ptr noundef null) #12
  unreachable

virtio_9p_get_driver.exit:                        ; preds = %12, %7, %4
  %.0 = phi ptr [ %6, %4 ], [ %13, %12 ], [ %8, %7 ]
  ret ptr %.0
}